target datalayout = "e-m:e-p270:32:32-p271:32:32-p272:64:64-i64:64-i128:128-f80:128-n8:16:32:64-S128"
target triple = "x86_64-pc-linux-gnu"

%"class.ue2::ReportManager" = type <{ %"class.ue2::ParsedLogical", ptr, %"class.std::vector.13", %"class.std::unordered_map", %"class.std::unordered_map.23", %"class.std::unordered_map.23", %"class.std::unordered_map.42", %"class.std::map.56", i64, i8, [7 x i8] }>
%"class.ue2::ParsedLogical" = type { %"class.std::vector", %"class.std::map", %"class.std::map", %"class.std::map.3", %"class.std::vector.8" }
%"class.std::vector" = type { %"struct.std::_Vector_base" }
%"struct.std::_Vector_base" = type { %"struct.std::_Vector_base<CombInfo, std::allocator<CombInfo>>::_Vector_impl" }
%"struct.std::_Vector_base<CombInfo, std::allocator<CombInfo>>::_Vector_impl" = type { %"struct.std::_Vector_base<CombInfo, std::allocator<CombInfo>>::_Vector_impl_data" }
%"struct.std::_Vector_base<CombInfo, std::allocator<CombInfo>>::_Vector_impl_data" = type { ptr, ptr, ptr }
%"class.std::map" = type { %"class.std::_Rb_tree" }
%"class.std::_Rb_tree" = type { %"struct.std::_Rb_tree<unsigned int, std::pair<const unsigned int, unsigned int>, std::_Select1st<std::pair<const unsigned int, unsigned int>>, std::less<unsigned int>>::_Rb_tree_impl" }
%"struct.std::_Rb_tree<unsigned int, std::pair<const unsigned int, unsigned int>, std::_Select1st<std::pair<const unsigned int, unsigned int>>, std::less<unsigned int>>::_Rb_tree_impl" = type { [8 x i8], %"struct.std::_Rb_tree_header" }
%"struct.std::_Rb_tree_header" = type { %"struct.std::_Rb_tree_node_base", i64 }
%"struct.std::_Rb_tree_node_base" = type { i32, ptr, ptr, ptr }
%"class.std::map.3" = type { %"class.std::_Rb_tree.4" }
%"class.std::_Rb_tree.4" = type { %"struct.std::_Rb_tree<unsigned int, std::pair<const unsigned int, std::set<unsigned int>>, std::_Select1st<std::pair<const unsigned int, std::set<unsigned int>>>, std::less<unsigned int>>::_Rb_tree_impl" }
%"struct.std::_Rb_tree<unsigned int, std::pair<const unsigned int, std::set<unsigned int>>, std::_Select1st<std::pair<const unsigned int, std::set<unsigned int>>>, std::less<unsigned int>>::_Rb_tree_impl" = type { [8 x i8], %"struct.std::_Rb_tree_header" }
%"class.std::vector.8" = type { %"struct.std::_Vector_base.9" }
%"struct.std::_Vector_base.9" = type { %"struct.std::_Vector_base<LogicalOp, std::allocator<LogicalOp>>::_Vector_impl" }
%"struct.std::_Vector_base<LogicalOp, std::allocator<LogicalOp>>::_Vector_impl" = type { %"struct.std::_Vector_base<LogicalOp, std::allocator<LogicalOp>>::_Vector_impl_data" }
%"struct.std::_Vector_base<LogicalOp, std::allocator<LogicalOp>>::_Vector_impl_data" = type { ptr, ptr, ptr }
%"class.std::vector.13" = type { %"struct.std::_Vector_base.14" }
%"struct.std::_Vector_base.14" = type { %"struct.std::_Vector_base<ue2::Report, std::allocator<ue2::Report>>::_Vector_impl" }
%"struct.std::_Vector_base<ue2::Report, std::allocator<ue2::Report>>::_Vector_impl" = type { %"struct.std::_Vector_base<ue2::Report, std::allocator<ue2::Report>>::_Vector_impl_data" }
%"struct.std::_Vector_base<ue2::Report, std::allocator<ue2::Report>>::_Vector_impl_data" = type { ptr, ptr, ptr }
%"class.std::unordered_map" = type { %"class.std::_Hashtable" }
%"class.std::_Hashtable" = type { ptr, i64, %"struct.std::__detail::_Hash_node_base", i64, %"struct.std::__detail::_Prime_rehash_policy", ptr }
%"struct.std::__detail::_Hash_node_base" = type { ptr }
%"struct.std::__detail::_Prime_rehash_policy" = type { float, i64 }
%"class.std::unordered_map.23" = type { %"class.std::_Hashtable.24" }
%"class.std::_Hashtable.24" = type { ptr, i64, %"struct.std::__detail::_Hash_node_base", i64, %"struct.std::__detail::_Prime_rehash_policy", ptr }
%"class.std::unordered_map.42" = type { %"class.std::_Hashtable.43" }
%"class.std::_Hashtable.43" = type { ptr, i64, %"struct.std::__detail::_Hash_node_base", i64, %"struct.std::__detail::_Prime_rehash_policy", ptr }
%"class.std::map.56" = type { %"class.std::_Rb_tree.57" }
%"class.std::_Rb_tree.57" = type { %"struct.std::_Rb_tree<long long, std::pair<const long long, unsigned int>, std::_Select1st<std::pair<const long long, unsigned int>>, std::less<long long>>::_Rb_tree_impl" }
%"struct.std::_Rb_tree<long long, std::pair<const long long, unsigned int>, std::_Select1st<std::pair<const long long, unsigned int>>, std::less<long long>>::_Rb_tree_impl" = type { [8 x i8], %"struct.std::_Rb_tree_header" }
%"struct.std::__detail::_Node_iterator_base.90" = type { ptr }
%"struct.std::pair.123" = type <{ %"struct.std::__detail::_Node_iterator.125", i8, [7 x i8] }>
%"struct.std::__detail::_Node_iterator.125" = type { %"struct.std::__detail::_Node_iterator_base.90" }

; Function Attrs: mustprogress uwtable
define linkonce_odr dso_local { ptr, i8 } @_ZNSt10_HashtableIjSt4pairIKjjESaIS2_ENSt8__detail10_Select1stESt8equal_toIjESt4hashIjENS4_18_Mod_range_hashingENS4_20_Default_ranged_hashENS4_20_Prime_rehash_policyENS4_17_Hashtable_traitsILb0ELb0ELb1EEEE7emplaceIJRjSH_EEES0_INS4_14_Node_iteratorIS2_Lb0ELb0EEEbEDpOT_(ptr noundef nonnull align 8 dereferenceable(56) %0, ptr noundef nonnull align 4 dereferenceable(4) %1, ptr noundef nonnull align 4 dereferenceable(4) %2) #4 comdat align 2 {
  %4 = alloca %"struct.std::pair.123", align 8
  %5 = alloca ptr, align 8
  %6 = alloca ptr, align 8
  %7 = alloca ptr, align 8
  %8 = alloca { ptr, i8 }, align 8
  store ptr %0, ptr %5, align 8
  store ptr %1, ptr %6, align 8
  store ptr %2, ptr %7, align 8
  %9 = load ptr, ptr %5, align 8
  %10 = load ptr, ptr %6, align 8
  %11 = load ptr, ptr %7, align 8
  %12 = call { ptr, i8 } @_ZNSt10_HashtableIjSt4pairIKjjESaIS2_ENSt8__detail10_Select1stESt8equal_toIjESt4hashIjENS4_18_Mod_range_hashingENS4_20_Default_ranged_hashENS4_20_Prime_rehash_policyENS4_17_Hashtable_traitsILb0ELb0ELb1EEEE10_M_emplaceIJRjSH_EEES0_INS4_14_Node_iteratorIS2_Lb0ELb0EEEbESt17integral_constantIbLb1EEDpOT_(ptr noundef nonnull align 8 dereferenceable(56) %9, ptr noundef nonnull align 4 dereferenceable(4) %10, ptr noundef nonnull align 4 dereferenceable(4) %11)
  store { ptr, i8 } %12, ptr %8, align 8
  call void @llvm.memcpy.p0.p0.i64(ptr align 8 %4, ptr align 8 %8, i64 9, i1 false)
  %13 = load { ptr, i8 }, ptr %4, align 8
  ret { ptr, i8 } %13
}

; Function Attrs: mustprogress uwtable
define linkonce_odr dso_local { ptr, i8 } @_ZNSt13unordered_mapIjjSt4hashIjESt8equal_toIjESaISt4pairIKjjEEE7emplaceIJRjSA_EEES4_INSt8__detail14_Node_iteratorIS6_Lb0ELb0EEEbEDpOT_(ptr noundef nonnull align 8 dereferenceable(56) %0, ptr noundef nonnull align 4 dereferenceable(4) %1, ptr noundef nonnull align 4 dereferenceable(4) %2) #4 comdat align 2 {
  %4 = alloca %"struct.std::pair.123", align 8
  %5 = alloca ptr, align 8
  %6 = alloca ptr, align 8
  %7 = alloca ptr, align 8
  %8 = alloca { ptr, i8 }, align 8
  store ptr %0, ptr %5, align 8
  store ptr %1, ptr %6, align 8
  store ptr %2, ptr %7, align 8
  %9 = load ptr, ptr %5, align 8
  %10 = getelementptr inbounds nuw %"class.std::unordered_map.23", ptr %9, i32 0, i32 0
  %11 = load ptr, ptr %6, align 8
  %12 = load ptr, ptr %7, align 8
  %13 = call { ptr, i8 } @_ZNSt10_HashtableIjSt4pairIKjjESaIS2_ENSt8__detail10_Select1stESt8equal_toIjESt4hashIjENS4_18_Mod_range_hashingENS4_20_Default_ranged_hashENS4_20_Prime_rehash_policyENS4_17_Hashtable_traitsILb0ELb0ELb1EEEE7emplaceIJRjSH_EEES0_INS4_14_Node_iteratorIS2_Lb0ELb0EEEbEDpOT_(ptr noundef nonnull align 8 dereferenceable(56) %10, ptr noundef nonnull align 4 dereferenceable(4) %11, ptr noundef nonnull align 4 dereferenceable(4) %12)
  store { ptr, i8 } %13, ptr %8, align 8
  call void @llvm.memcpy.p0.p0.i64(ptr align 8 %4, ptr align 8 %8, i64 9, i1 false)
  %14 = load { ptr, i8 }, ptr %4, align 8
  ret { ptr, i8 } %14
}

; Function Attrs: mustprogress uwtable
define hidden void @_ZN3ue213ReportManager16setProgramOffsetEjj(ptr noundef nonnull align 8 dereferenceable(505) %0, i32 noundef %1, i32 noundef %2) #4 align 2 {
  %4 = alloca ptr, align 8
  %5 = alloca i32, align 4
  %6 = alloca i32, align 4
  %7 = alloca %"struct.std::pair.123", align 8
  store ptr %0, ptr %4, align 8
  store i32 %1, ptr %5, align 4
  store i32 %2, ptr %6, align 4
  %8 = load ptr, ptr %4, align 8
  %9 = getelementptr inbounds nuw %"class.ue2::ReportManager", ptr %8, i32 0, i32 5
  %10 = call { ptr, i8 } @_ZNSt13unordered_mapIjjSt4hashIjESt8equal_toIjESaISt4pairIKjjEEE7emplaceIJRjSA_EEES4_INSt8__detail14_Node_iteratorIS6_Lb0ELb0EEEbEDpOT_(ptr noundef nonnull align 8 dereferenceable(56) %9, ptr noundef nonnull align 4 dereferenceable(4) %5, ptr noundef nonnull align 4 dereferenceable(4) %6)
  %11 = getelementptr inbounds nuw { ptr, i8 }, ptr %7, i32 0, i32 0
  %12 = extractvalue { ptr, i8 } %10, 0
  store ptr %12, ptr %11, align 8
  %13 = getelementptr inbounds nuw { ptr, i8 }, ptr %7, i32 0, i32 1
  %14 = extractvalue { ptr, i8 } %10, 1
  store i8 %14, ptr %13, align 8
  ret void
}