; Function Attrs: mustprogress uwtable
define hidden void @_ZN3ue213ReportManager16setProgramOffsetEjj(ptr noundef nonnull align 8 dereferenceable(505) %0, i32 noundef %1, i32 noundef %2) local_unnamed_addr #1 align 2 {
  %4 = alloca i32, align 4
  %5 = alloca i32, align 4
  store i32 %1, ptr %4, align 4
  store i32 %2, ptr %5, align 4
  %6 = getelementptr inbounds nuw i8, ptr %0, i64 336
  %7 = call { ptr, i8 } @_ZNSt10_HashtableIjSt4pairIKjjESaIS2_ENSt8__detail10_Select1stESt8equal_toIjESt4hashIjENS4_18_Mod_range_hashingENS4_20_Default_ranged_hashENS4_20_Prime_rehash_policyENS4_17_Hashtable_traitsILb0ELb0ELb1EEEE10_M_emplaceIJRjSH_EEES0_INS4_14_Node_iteratorIS2_Lb0ELb0EEEbESt17integral_constantIbLb1EEDpOT_(ptr noundef nonnull align 8 dereferenceable(56) %6, ptr noundef nonnull align 4 dereferenceable(4) %4, ptr noundef nonnull align 4 dereferenceable(4) %5)
  ret void
}